target datalayout = "e-m:e-p270:32:32-p271:32:32-p272:64:64-i64:64-i128:128-f80:128-n8:16:32:64-S128"
target triple = "x86_64-pc-linux-gnu"

%"class.clang::QualType" = type { %"class.llvm::PointerIntPair" }
%"class.llvm::PointerIntPair" = type { %"struct.llvm::detail::PunnedPointer" }
%"struct.llvm::detail::PunnedPointer" = type { [8 x i8] }
%"class.clang::TemplateArgument" = type { %union.anon }
%union.anon = type { %"struct.clang::TemplateArgument::DA" }
%"struct.clang::TemplateArgument::DA" = type { i32, ptr, ptr }
%"struct.clang::TemplateArgument::TV" = type { i32, i64 }
%"struct.clang::TemplateArgument::I" = type { i64, %union.anon.0, ptr }
%union.anon.0 = type { i64 }
%"struct.clang::TemplateArgument::V" = type { i32, ptr, ptr }
%"class.clang::Stmt" = type { %union.anon.355 }
%union.anon.355 = type { %"class.clang::Stmt::PseudoObjectExprBitfields" }
%"class.clang::Stmt::PseudoObjectExprBitfields" = type { i64 }
%"class.clang::Expr" = type { %"class.clang::ValueStmt", %"class.clang::QualType" }
%"class.clang::ValueStmt" = type { %"class.clang::Stmt" }

; Function Attrs: mustprogress nounwind uwtable
define linkonce_odr hidden noundef nonnull align 8 dereferenceable(8) ptr @_ZN4llvm6detail13PunnedPointerINS_12PointerUnionIJPKN5clang4TypeEPKNS3_8ExtQualsEEEEEaSEl(ptr noundef nonnull align 8 dereferenceable(8) %0, i64 noundef %1) #0 comdat align 2 {
  %3 = alloca ptr, align 8
  %4 = alloca i64, align 8
  store ptr %0, ptr %3, align 8
  store i64 %1, ptr %4, align 8
  %5 = load ptr, ptr %3, align 8
  %6 = getelementptr inbounds nuw %"struct.llvm::detail::PunnedPointer", ptr %5, i32 0, i32 0
  %7 = getelementptr inbounds [8 x i8], ptr %6, i64 0, i64 0
  call void @llvm.memcpy.p0.p0.i64(ptr align 8 %7, ptr align 8 %4, i64 8, i1 false)
  ret ptr %5
}

; Function Attrs: mustprogress nounwind uwtable
define linkonce_odr hidden void @_ZNR4llvm14PointerIntPairINS_12PointerUnionIJPKN5clang4TypeEPKNS2_8ExtQualsEEEELj3EjNS_21PointerLikeTypeTraitsIS9_EENS_18PointerIntPairInfoIS9_Lj3ESB_EEE18setFromOpaqueValueEPv(ptr noundef nonnull align 8 dereferenceable(8) %0, ptr noundef %1) #0 comdat align 2 {
  %3 = alloca ptr, align 8
  %4 = alloca ptr, align 8
  store ptr %0, ptr %3, align 8
  store ptr %1, ptr %4, align 8
  %5 = load ptr, ptr %3, align 8
  %6 = load ptr, ptr %4, align 8
  %7 = ptrtoint ptr %6 to i64
  %8 = getelementptr inbounds nuw %"class.llvm::PointerIntPair", ptr %5, i32 0, i32 0
  %9 = call noundef nonnull align 8 dereferenceable(8) ptr @_ZN4llvm6detail13PunnedPointerINS_12PointerUnionIJPKN5clang4TypeEPKNS3_8ExtQualsEEEEEaSEl(ptr noundef nonnull align 8 dereferenceable(8) %8, i64 noundef %7)
  ret void
}

; Function Attrs: mustprogress nounwind uwtable
define linkonce_odr hidden void @_ZN4llvm6detail13PunnedPointerINS_12PointerUnionIJPKN5clang4TypeEPKNS3_8ExtQualsEEEEEC2El(ptr noundef nonnull align 8 dereferenceable(8) %0, i64 noundef %1) unnamed_addr #0 comdat align 2 {
  %3 = alloca ptr, align 8
  %4 = alloca i64, align 8
  store ptr %0, ptr %3, align 8
  store i64 %1, ptr %4, align 8
  %5 = load ptr, ptr %3, align 8
  %6 = load i64, ptr %4, align 8
  %7 = call noundef nonnull align 8 dereferenceable(8) ptr @_ZN4llvm6detail13PunnedPointerINS_12PointerUnionIJPKN5clang4TypeEPKNS3_8ExtQualsEEEEEaSEl(ptr noundef nonnull align 8 dereferenceable(8) %5, i64 noundef %6)
  ret void
}

; Function Attrs: mustprogress nounwind uwtable
define linkonce_odr hidden i64 @_ZN5clang8QualType16getFromOpaquePtrEPKv(ptr noundef %0) #0 comdat align 2 {
  %2 = alloca %"class.clang::QualType", align 8
  %3 = alloca ptr, align 8
  store ptr %0, ptr %3, align 8
  call void @_ZN5clang8QualTypeC2Ev(ptr noundef nonnull align 8 dereferenceable(8) %2)
  %4 = getelementptr inbounds nuw %"class.clang::QualType", ptr %2, i32 0, i32 0
  %5 = load ptr, ptr %3, align 8
  call void @_ZNR4llvm14PointerIntPairINS_12PointerUnionIJPKN5clang4TypeEPKNS2_8ExtQualsEEEELj3EjNS_21PointerLikeTypeTraitsIS9_EENS_18PointerIntPairInfoIS9_Lj3ESB_EEE18setFromOpaqueValueEPv(ptr noundef nonnull align 8 dereferenceable(8) %4, ptr noundef %5)
  %6 = getelementptr inbounds nuw %"class.clang::QualType", ptr %2, i32 0, i32 0
  %7 = getelementptr inbounds nuw %"class.llvm::PointerIntPair", ptr %6, i32 0, i32 0
  %8 = getelementptr inbounds nuw %"struct.llvm::detail::PunnedPointer", ptr %7, i32 0, i32 0
  %9 = load i64, ptr %8, align 8
  ret i64 %9
}

; Function Attrs: mustprogress nounwind uwtable
define linkonce_odr hidden void @_ZN4llvm14PointerIntPairINS_12PointerUnionIJPKN5clang4TypeEPKNS2_8ExtQualsEEEELj3EjNS_21PointerLikeTypeTraitsIS9_EENS_18PointerIntPairInfoIS9_Lj3ESB_EEEC2Ev(ptr noundef nonnull align 8 dereferenceable(8) %0) unnamed_addr #0 comdat align 2 {
  %2 = alloca ptr, align 8
  store ptr %0, ptr %2, align 8
  %3 = load ptr, ptr %2, align 8
  %4 = getelementptr inbounds nuw %"class.llvm::PointerIntPair", ptr %3, i32 0, i32 0
  call void @_ZN4llvm6detail13PunnedPointerINS_12PointerUnionIJPKN5clang4TypeEPKNS3_8ExtQualsEEEEEC2El(ptr noundef nonnull align 8 dereferenceable(8) %4, i64 noundef 0)
  ret void
}

; Function Attrs: mustprogress nounwind uwtable
define linkonce_odr hidden i64 @_ZNK5clang16TemplateArgument22getStructuralValueTypeEv(ptr noundef nonnull align 8 dereferenceable(24) %0) #0 comdat align 2 {
  %2 = alloca %"class.clang::QualType", align 8
  %3 = alloca ptr, align 8
  store ptr %0, ptr %3, align 8
  %4 = load ptr, ptr %3, align 8
  %5 = getelementptr inbounds nuw %"class.clang::TemplateArgument", ptr %4, i32 0, i32 0
  %6 = getelementptr inbounds nuw %"struct.clang::TemplateArgument::V", ptr %5, i32 0, i32 2
  %7 = load ptr, ptr %6, align 8
  %8 = call i64 @_ZN5clang8QualType16getFromOpaquePtrEPKv(ptr noundef %7)
  %9 = getelementptr inbounds nuw %"class.clang::QualType", ptr %2, i32 0, i32 0
  %10 = getelementptr inbounds nuw %"class.llvm::PointerIntPair", ptr %9, i32 0, i32 0
  %11 = getelementptr inbounds nuw %"struct.llvm::detail::PunnedPointer", ptr %10, i32 0, i32 0
  store i64 %8, ptr %11, align 8
  %12 = getelementptr inbounds nuw %"class.clang::QualType", ptr %2, i32 0, i32 0
  %13 = getelementptr inbounds nuw %"class.llvm::PointerIntPair", ptr %12, i32 0, i32 0
  %14 = getelementptr inbounds nuw %"struct.llvm::detail::PunnedPointer", ptr %13, i32 0, i32 0
  %15 = load i64, ptr %14, align 8
  ret i64 %15
}

; Function Attrs: mustprogress nounwind uwtable
define linkonce_odr hidden i64 @_ZNK5clang16TemplateArgument14getNullPtrTypeEv(ptr noundef nonnull align 8 dereferenceable(24) %0) #0 comdat align 2 {
  %2 = alloca %"class.clang::QualType", align 8
  %3 = alloca ptr, align 8
  store ptr %0, ptr %3, align 8
  %4 = load ptr, ptr %3, align 8
  %5 = getelementptr inbounds nuw %"class.clang::TemplateArgument", ptr %4, i32 0, i32 0
  %6 = getelementptr inbounds nuw %"struct.clang::TemplateArgument::TV", ptr %5, i32 0, i32 1
  %7 = load i64, ptr %6, align 8
  %8 = inttoptr i64 %7 to ptr
  %9 = call i64 @_ZN5clang8QualType16getFromOpaquePtrEPKv(ptr noundef %8)
  %10 = getelementptr inbounds nuw %"class.clang::QualType", ptr %2, i32 0, i32 0
  %11 = getelementptr inbounds nuw %"class.llvm::PointerIntPair", ptr %10, i32 0, i32 0
  %12 = getelementptr inbounds nuw %"struct.llvm::detail::PunnedPointer", ptr %11, i32 0, i32 0
  store i64 %9, ptr %12, align 8
  %13 = getelementptr inbounds nuw %"class.clang::QualType", ptr %2, i32 0, i32 0
  %14 = getelementptr inbounds nuw %"class.llvm::PointerIntPair", ptr %13, i32 0, i32 0
  %15 = getelementptr inbounds nuw %"struct.llvm::detail::PunnedPointer", ptr %14, i32 0, i32 0
  %16 = load i64, ptr %15, align 8
  ret i64 %16
}

; Function Attrs: mustprogress nounwind uwtable
define linkonce_odr hidden i64 @_ZNK5clang16TemplateArgument19getParamTypeForDeclEv(ptr noundef nonnull align 8 dereferenceable(24) %0) #0 comdat align 2 {
  %2 = alloca %"class.clang::QualType", align 8
  %3 = alloca ptr, align 8
  store ptr %0, ptr %3, align 8
  %4 = load ptr, ptr %3, align 8
  %5 = getelementptr inbounds nuw %"class.clang::TemplateArgument", ptr %4, i32 0, i32 0
  %6 = getelementptr inbounds nuw %"struct.clang::TemplateArgument::DA", ptr %5, i32 0, i32 1
  %7 = load ptr, ptr %6, align 8
  %8 = call i64 @_ZN5clang8QualType16getFromOpaquePtrEPKv(ptr noundef %7)
  %9 = getelementptr inbounds nuw %"class.clang::QualType", ptr %2, i32 0, i32 0
  %10 = getelementptr inbounds nuw %"class.llvm::PointerIntPair", ptr %9, i32 0, i32 0
  %11 = getelementptr inbounds nuw %"struct.llvm::detail::PunnedPointer", ptr %10, i32 0, i32 0
  store i64 %8, ptr %11, align 8
  %12 = getelementptr inbounds nuw %"class.clang::QualType", ptr %2, i32 0, i32 0
  %13 = getelementptr inbounds nuw %"class.llvm::PointerIntPair", ptr %12, i32 0, i32 0
  %14 = getelementptr inbounds nuw %"struct.llvm::detail::PunnedPointer", ptr %13, i32 0, i32 0
  %15 = load i64, ptr %14, align 8
  ret i64 %15
}

; Function Attrs: mustprogress nounwind uwtable
define linkonce_odr hidden i64 @_ZNK5clang4Expr7getTypeEv(ptr noundef nonnull align 8 dereferenceable(16) %0) #0 comdat align 2 {
  %2 = alloca %"class.clang::QualType", align 8
  %3 = alloca ptr, align 8
  store ptr %0, ptr %3, align 8
  %4 = load ptr, ptr %3, align 8
  %5 = getelementptr inbounds nuw %"class.clang::Expr", ptr %4, i32 0, i32 1
  call void @llvm.memcpy.p0.p0.i64(ptr align 8 %2, ptr align 8 %5, i64 8, i1 false)
  %6 = getelementptr inbounds nuw %"class.clang::QualType", ptr %2, i32 0, i32 0
  %7 = getelementptr inbounds nuw %"class.llvm::PointerIntPair", ptr %6, i32 0, i32 0
  %8 = getelementptr inbounds nuw %"struct.llvm::detail::PunnedPointer", ptr %7, i32 0, i32 0
  %9 = load i64, ptr %8, align 8
  ret i64 %9
}

; Function Attrs: mustprogress nounwind uwtable
define linkonce_odr hidden noundef ptr @_ZNK5clang16TemplateArgument9getAsExprEv(ptr noundef nonnull align 8 dereferenceable(24) %0) #0 comdat align 2 {
  %2 = alloca ptr, align 8
  store ptr %0, ptr %2, align 8
  %3 = load ptr, ptr %2, align 8
  %4 = getelementptr inbounds nuw %"class.clang::TemplateArgument", ptr %3, i32 0, i32 0
  %5 = getelementptr inbounds nuw %"struct.clang::TemplateArgument::TV", ptr %4, i32 0, i32 1
  %6 = load i64, ptr %5, align 8
  %7 = inttoptr i64 %6 to ptr
  ret ptr %7
}

; Function Attrs: mustprogress nounwind uwtable
define linkonce_odr hidden i64 @_ZNK5clang16TemplateArgument15getIntegralTypeEv(ptr noundef nonnull align 8 dereferenceable(24) %0) #0 comdat align 2 {
  %2 = alloca %"class.clang::QualType", align 8
  %3 = alloca ptr, align 8
  store ptr %0, ptr %3, align 8
  %4 = load ptr, ptr %3, align 8
  %5 = getelementptr inbounds nuw %"class.clang::TemplateArgument", ptr %4, i32 0, i32 0
  %6 = getelementptr inbounds nuw %"struct.clang::TemplateArgument::I", ptr %5, i32 0, i32 2
  %7 = load ptr, ptr %6, align 8
  %8 = call i64 @_ZN5clang8QualType16getFromOpaquePtrEPKv(ptr noundef %7)
  %9 = getelementptr inbounds nuw %"class.clang::QualType", ptr %2, i32 0, i32 0
  %10 = getelementptr inbounds nuw %"class.llvm::PointerIntPair", ptr %9, i32 0, i32 0
  %11 = getelementptr inbounds nuw %"struct.llvm::detail::PunnedPointer", ptr %10, i32 0, i32 0
  store i64 %8, ptr %11, align 8
  %12 = getelementptr inbounds nuw %"class.clang::QualType", ptr %2, i32 0, i32 0
  %13 = getelementptr inbounds nuw %"class.llvm::PointerIntPair", ptr %12, i32 0, i32 0
  %14 = getelementptr inbounds nuw %"struct.llvm::detail::PunnedPointer", ptr %13, i32 0, i32 0
  %15 = load i64, ptr %14, align 8
  ret i64 %15
}

; Function Attrs: mustprogress nounwind uwtable
define linkonce_odr hidden void @_ZN5clang8QualTypeC2Ev(ptr noundef nonnull align 8 dereferenceable(8) %0) unnamed_addr #0 comdat align 2 {
  %2 = alloca ptr, align 8
  store ptr %0, ptr %2, align 8
  %3 = load ptr, ptr %2, align 8
  %4 = getelementptr inbounds nuw %"class.clang::QualType", ptr %3, i32 0, i32 0
  call void @_ZN4llvm14PointerIntPairINS_12PointerUnionIJPKN5clang4TypeEPKNS2_8ExtQualsEEEELj3EjNS_21PointerLikeTypeTraitsIS9_EENS_18PointerIntPairInfoIS9_Lj3ESB_EEEC2Ev(ptr noundef nonnull align 8 dereferenceable(8) %4)
  ret void
}

; Function Attrs: mustprogress nounwind uwtable
define linkonce_odr hidden noundef i32 @_ZNK5clang16TemplateArgument7getKindEv(ptr noundef nonnull align 8 dereferenceable(24) %0) #0 comdat align 2 {
  %2 = alloca ptr, align 8
  store ptr %0, ptr %2, align 8
  %3 = load ptr, ptr %2, align 8
  %4 = getelementptr inbounds nuw %"class.clang::TemplateArgument", ptr %3, i32 0, i32 0
  %5 = load i32, ptr %4, align 8
  %6 = and i32 %5, 2147483647
  ret i32 %6
}

; Function Attrs: mustprogress nounwind uwtable
define dso_local i64 @_ZNK5clang16TemplateArgument30getNonTypeTemplateArgumentTypeEv(ptr noundef nonnull align 8 dereferenceable(24) %0) #0 align 2 {
  %2 = alloca %"class.clang::QualType", align 8
  %3 = alloca ptr, align 8
  store ptr %0, ptr %3, align 8
  %4 = load ptr, ptr %3, align 8
  %5 = call noundef i32 @_ZNK5clang16TemplateArgument7getKindEv(ptr noundef nonnull align 8 dereferenceable(24) %4)
  switch i32 %5, label %33 [
    i32 0, label %6
    i32 1, label %6
    i32 6, label %6
    i32 7, label %6
    i32 9, label %6
    i32 4, label %7
    i32 8, label %12
    i32 2, label %18
    i32 3, label %23
    i32 5, label %28
  ]

6:                                                ; preds = %1, %1, %1, %1, %1
  call void @llvm.memset.p0.i64(ptr align 8 %2, i8 0, i64 8, i1 false)
  call void @_ZN5clang8QualTypeC2Ev(ptr noundef nonnull align 8 dereferenceable(8) %2)
  br label %34

7:                                                ; preds = %1
  %8 = call i64 @_ZNK5clang16TemplateArgument15getIntegralTypeEv(ptr noundef nonnull align 8 dereferenceable(24) %4)
  %9 = getelementptr inbounds nuw %"class.clang::QualType", ptr %2, i32 0, i32 0
  %10 = getelementptr inbounds nuw %"class.llvm::PointerIntPair", ptr %9, i32 0, i32 0
  %11 = getelementptr inbounds nuw %"struct.llvm::detail::PunnedPointer", ptr %10, i32 0, i32 0
  store i64 %8, ptr %11, align 8
  br label %34

12:                                               ; preds = %1
  %13 = call noundef ptr @_ZNK5clang16TemplateArgument9getAsExprEv(ptr noundef nonnull align 8 dereferenceable(24) %4)
  %14 = call i64 @_ZNK5clang4Expr7getTypeEv(ptr noundef nonnull align 8 dereferenceable(16) %13)
  %15 = getelementptr inbounds nuw %"class.clang::QualType", ptr %2, i32 0, i32 0
  %16 = getelementptr inbounds nuw %"class.llvm::PointerIntPair", ptr %15, i32 0, i32 0
  %17 = getelementptr inbounds nuw %"struct.llvm::detail::PunnedPointer", ptr %16, i32 0, i32 0
  store i64 %14, ptr %17, align 8
  br label %34

18:                                               ; preds = %1
  %19 = call i64 @_ZNK5clang16TemplateArgument19getParamTypeForDeclEv(ptr noundef nonnull align 8 dereferenceable(24) %4)
  %20 = getelementptr inbounds nuw %"class.clang::QualType", ptr %2, i32 0, i32 0
  %21 = getelementptr inbounds nuw %"class.llvm::PointerIntPair", ptr %20, i32 0, i32 0
  %22 = getelementptr inbounds nuw %"struct.llvm::detail::PunnedPointer", ptr %21, i32 0, i32 0
  store i64 %19, ptr %22, align 8
  br label %34

23:                                               ; preds = %1
  %24 = call i64 @_ZNK5clang16TemplateArgument14getNullPtrTypeEv(ptr noundef nonnull align 8 dereferenceable(24) %4)
  %25 = getelementptr inbounds nuw %"class.clang::QualType", ptr %2, i32 0, i32 0
  %26 = getelementptr inbounds nuw %"class.llvm::PointerIntPair", ptr %25, i32 0, i32 0
  %27 = getelementptr inbounds nuw %"struct.llvm::detail::PunnedPointer", ptr %26, i32 0, i32 0
  store i64 %24, ptr %27, align 8
  br label %34

28:                                               ; preds = %1
  %29 = call i64 @_ZNK5clang16TemplateArgument22getStructuralValueTypeEv(ptr noundef nonnull align 8 dereferenceable(24) %4)
  %30 = getelementptr inbounds nuw %"class.clang::QualType", ptr %2, i32 0, i32 0
  %31 = getelementptr inbounds nuw %"class.llvm::PointerIntPair", ptr %30, i32 0, i32 0
  %32 = getelementptr inbounds nuw %"struct.llvm::detail::PunnedPointer", ptr %31, i32 0, i32 0
  store i64 %29, ptr %32, align 8
  br label %34

33:                                               ; preds = %1
  unreachable

34:                                               ; preds = %28, %23, %18, %12, %7, %6
  %35 = getelementptr inbounds nuw %"class.clang::QualType", ptr %2, i32 0, i32 0
  %36 = getelementptr inbounds nuw %"class.llvm::PointerIntPair", ptr %35, i32 0, i32 0
  %37 = getelementptr inbounds nuw %"struct.llvm::detail::PunnedPointer", ptr %36, i32 0, i32 0
  %38 = load i64, ptr %37, align 8
  ret i64 %38
}