; Function Attrs: mustprogress nofree norecurse nosync nounwind willreturn memory(read, inaccessiblemem: none) uwtable
define dso_local i64 @_ZNK5clang16TemplateArgument30getNonTypeTemplateArgumentTypeEv(ptr nocapture noundef nonnull readonly align 8 dereferenceable(24) %0) local_unnamed_addr #4 align 2 {
  %2 = load i32, ptr %0, align 8
  %3 = and i32 %2, 2147483647
  switch i32 %3, label %24 [
    i32 0, label %25
    i32 1, label %25
    i32 6, label %25
    i32 7, label %25
    i32 9, label %25
    i32 4, label %4
    i32 8, label %8
    i32 2, label %13
    i32 3, label %17
    i32 5, label %20
  ]

4:                                                ; preds = %1
  %5 = getelementptr inbounds nuw i8, ptr %0, i64 16
  %6 = load ptr, ptr %5, align 8
  %7 = ptrtoint ptr %6 to i64
  br label %25

8:                                                ; preds = %1
  %9 = getelementptr inbounds nuw i8, ptr %0, i64 8
  %10 = load i64, ptr %9, align 8
  %11 = inttoptr i64 %10 to ptr
  %12 = getelementptr inbounds nuw i8, ptr %11, i64 8
  %.sroa.0.0.copyload.i = load i64, ptr %12, align 8
  br label %25

13:                                               ; preds = %1
  %14 = getelementptr inbounds nuw i8, ptr %0, i64 8
  %15 = load ptr, ptr %14, align 8
  %16 = ptrtoint ptr %15 to i64
  br label %25

17:                                               ; preds = %1
  %18 = getelementptr inbounds nuw i8, ptr %0, i64 8
  %19 = load i64, ptr %18, align 8
  br label %25

20:                                               ; preds = %1
  %21 = getelementptr inbounds nuw i8, ptr %0, i64 16
  %22 = load ptr, ptr %21, align 8
  %23 = ptrtoint ptr %22 to i64
  br label %25

24:                                               ; preds = %1
  unreachable

25:                                               ; preds = %1, %1, %1, %1, %1, %20, %17, %13, %8, %4
  %.sroa.0.0 = phi i64 [ %23, %20 ], [ %19, %17 ], [ %16, %13 ], [ %.sroa.0.0.copyload.i, %8 ], [ %7, %4 ], [ 0, %1 ], [ 0, %1 ], [ 0, %1 ], [ 0, %1 ], [ 0, %1 ]
  ret i64 %.sroa.0.0
}